; Function Attrs: nounwind uwtable
define ptr @l_Lean_mkStateFromImportedEntries___at_Lean_initFn____x40_Lean_Namespace___hyg_3____spec__1___boxed(ptr noundef %0, ptr noundef %1, ptr noundef %2) local_unnamed_addr #0 {
  %4 = getelementptr i8, ptr %2, i64 8
  %.val.i = load i64, ptr %4, align 8, !tbaa !12
  %.mask.i = and i64 %.val.i, 9223372036854775807
  %.not.i5 = icmp eq i64 %.mask.i, 0
  br i1 %.not.i5, label %lean_dec.exit24.i, label %lean_dec.exit.i

lean_dec.exit24.i:                                ; preds = %3
  %5 = ptrtoint ptr %0 to i64
  %6 = and i64 %5, 1
  %.not36.i = icmp eq i64 %6, 0
  br i1 %.not36.i, label %7, label %l_Lean_mkStateFromImportedEntries___at_Lean_initFn____x40_Lean_Namespace___hyg_3____spec__1.exit

7:                                                ; preds = %lean_dec.exit24.i
  %8 = load i32, ptr %0, align 4, !tbaa !8
  %9 = icmp sgt i32 %8, 1
  br i1 %9, label %10, label %12, !prof !11

10:                                               ; preds = %7
  %11 = add nsw i32 %8, -1
  store i32 %11, ptr %0, align 4, !tbaa !8
  br label %l_Lean_mkStateFromImportedEntries___at_Lean_initFn____x40_Lean_Namespace___hyg_3____spec__1.exit

12:                                               ; preds = %7
  %.not.i25.i = icmp eq i32 %8, 0
  br i1 %.not.i25.i, label %l_Lean_mkStateFromImportedEntries___at_Lean_initFn____x40_Lean_Namespace___hyg_3____spec__1.exit, label %13

13:                                               ; preds = %12
  tail call void @lean_dec_ref_cold(ptr noundef nonnull %0) #3
  br label %l_Lean_mkStateFromImportedEntries___at_Lean_initFn____x40_Lean_Namespace___hyg_3____spec__1.exit

lean_dec.exit.i:                                  ; preds = %3
  %14 = tail call ptr @l_Array_foldlMUnsafe_fold___at_Lean_initFn____x40_Lean_Namespace___hyg_3____spec__3(ptr noundef %0, ptr noundef nonnull readonly %2, i64 noundef 0, i64 noundef %.mask.i, ptr noundef %1)
  br label %l_Lean_mkStateFromImportedEntries___at_Lean_initFn____x40_Lean_Namespace___hyg_3____spec__1.exit

l_Lean_mkStateFromImportedEntries___at_Lean_initFn____x40_Lean_Namespace___hyg_3____spec__1.exit: ; preds = %lean_dec.exit24.i, %10, %12, %13, %lean_dec.exit.i
  %.0.i = phi ptr [ %14, %lean_dec.exit.i ], [ %1, %13 ], [ %1, %12 ], [ %1, %10 ], [ %1, %lean_dec.exit24.i ]
  %15 = ptrtoint ptr %2 to i64
  %16 = and i64 %15, 1
  %.not = icmp eq i64 %16, 0
  br i1 %.not, label %17, label %lean_dec.exit

17:                                               ; preds = %l_Lean_mkStateFromImportedEntries___at_Lean_initFn____x40_Lean_Namespace___hyg_3____spec__1.exit
  %18 = load i32, ptr %2, align 4, !tbaa !8
  %19 = icmp sgt i32 %18, 1
  br i1 %19, label %20, label %22, !prof !11

20:                                               ; preds = %17
  %21 = add nsw i32 %18, -1
  store i32 %21, ptr %2, align 4, !tbaa !8
  br label %lean_dec.exit

22:                                               ; preds = %17
  %.not.i = icmp eq i32 %18, 0
  br i1 %.not.i, label %lean_dec.exit, label %23

23:                                               ; preds = %22
  tail call void @lean_dec_ref_cold(ptr noundef nonnull %2) #3
  br label %lean_dec.exit

lean_dec.exit:                                    ; preds = %23, %22, %20, %l_Lean_mkStateFromImportedEntries___at_Lean_initFn____x40_Lean_Namespace___hyg_3____spec__1.exit
  ret ptr %.0.i
}